target datalayout = "e-m:e-p270:32:32-p271:32:32-p272:64:64-i64:64-i128:128-f80:128-n8:16:32:64-S128"
target triple = "x86_64-pc-linux-gnu"

%union.pthread_mutex_t = type { %struct.__pthread_mutex_s }
%struct.__pthread_mutex_s = type { i32, i32, i32, i32, i32, i16, i16, %struct.__pthread_internal_list }
%struct.__pthread_internal_list = type { ptr, ptr }
%struct.___itt_global = type { [8 x i8], i64, i64, i64, i64, i64, i64, %union.pthread_mutex_t, ptr, ptr, ptr, ptr, ptr, ptr, ptr, ptr, i32, ptr, i32, ptr, ptr }
%union.pthread_mutexattr_t = type { i32 }
%struct.___itt_api_info = type { ptr, ptr, ptr, ptr, i32 }

@__itt_fini_ittlib.current_thread = internal global i64 0, align 8
@.str = private unnamed_addr constant [23 x i8] c"pthread_mutexattr_init\00", align 1
@.str.1 = private unnamed_addr constant [26 x i8] c"pthread_mutexattr_settype\00", align 1
@.str.2 = private unnamed_addr constant [19 x i8] c"pthread_mutex_init\00", align 1
@.str.3 = private unnamed_addr constant [26 x i8] c"pthread_mutexattr_destroy\00", align 1
@.str.4 = private unnamed_addr constant [15 x i8] c"__itt_api_fini\00", align 1

; Function Attrs: nounwind uwtable
define internal void @__itt_nullify_all_pointers() #0 {
  %1 = alloca i32, align 4
  call void @llvm.lifetime.start.p0(i64 4, ptr %1) #8
  store i32 0, ptr %1, align 4, !tbaa !24
  br label %2

2:                                                ; preds = %23, %0
  %3 = load ptr, ptr getelementptr inbounds nuw (%struct.___itt_global, ptr @__itt__ittapi_global, i32 0, i32 11), align 8, !tbaa !128
  %4 = load i32, ptr %1, align 4, !tbaa !24
  %5 = sext i32 %4 to i64
  %6 = getelementptr inbounds %struct.___itt_api_info, ptr %3, i64 %5
  %7 = getelementptr inbounds nuw %struct.___itt_api_info, ptr %6, i32 0, i32 0
  %8 = load ptr, ptr %7, align 8, !tbaa !129
  %9 = icmp ne ptr %8, null
  br i1 %9, label %10, label %26

10:                                               ; preds = %2
  %11 = load ptr, ptr getelementptr inbounds nuw (%struct.___itt_global, ptr @__itt__ittapi_global, i32 0, i32 11), align 8, !tbaa !128
  %12 = load i32, ptr %1, align 4, !tbaa !24
  %13 = sext i32 %12 to i64
  %14 = getelementptr inbounds %struct.___itt_api_info, ptr %11, i64 %13
  %15 = getelementptr inbounds nuw %struct.___itt_api_info, ptr %14, i32 0, i32 3
  %16 = load ptr, ptr %15, align 8, !tbaa !131
  %17 = load ptr, ptr getelementptr inbounds nuw (%struct.___itt_global, ptr @__itt__ittapi_global, i32 0, i32 11), align 8, !tbaa !128
  %18 = load i32, ptr %1, align 4, !tbaa !24
  %19 = sext i32 %18 to i64
  %20 = getelementptr inbounds %struct.___itt_api_info, ptr %17, i64 %19
  %21 = getelementptr inbounds nuw %struct.___itt_api_info, ptr %20, i32 0, i32 1
  %22 = load ptr, ptr %21, align 8, !tbaa !132
  store ptr %16, ptr %22, align 8, !tbaa !21
  br label %23

23:                                               ; preds = %10
  %24 = load i32, ptr %1, align 4, !tbaa !24
  %25 = add nsw i32 %24, 1
  store i32 %25, ptr %1, align 4, !tbaa !24
  br label %2, !llvm.loop !133

26:                                               ; preds = %2
  call void @llvm.lifetime.end.p0(i64 4, ptr %1) #8
  ret void
}

; Function Attrs: alwaysinline nounwind uwtable
define internal i64 @__itt_interlocked_compare_exchange(ptr noundef %0, i64 noundef %1, i64 noundef %2) #4 {
  %4 = alloca ptr, align 8
  %5 = alloca i64, align 8
  %6 = alloca i64, align 8
  store ptr %0, ptr %4, align 8, !tbaa !125
  store i64 %1, ptr %5, align 8, !tbaa !25
  store i64 %2, ptr %6, align 8, !tbaa !25
  %7 = load ptr, ptr %4, align 8, !tbaa !125
  %8 = load i64, ptr %5, align 8, !tbaa !25
  %9 = load i64, ptr %6, align 8, !tbaa !25
  %10 = cmpxchg ptr %7, i64 %8, i64 %9 seq_cst seq_cst, align 8
  %11 = extractvalue { i64, i1 } %10, 0
  ret i64 %11
}

; Function Attrs: nounwind uwtable
define hidden void @__itt_fini_ittlib() #0 {
  %1 = alloca ptr, align 8
  %2 = alloca %union.pthread_mutexattr_t, align 4
  %3 = alloca i32, align 4
  call void @llvm.lifetime.start.p0(i64 8, ptr %1) #8
  store ptr null, ptr %1, align 8, !tbaa !21
  %4 = load volatile i64, ptr getelementptr inbounds nuw (%struct.___itt_global, ptr @__itt__ittapi_global, i32 0, i32 4), align 8, !tbaa !3
  %5 = icmp ne i64 %4, 0
  br i1 %5, label %6, label %122

6:                                                ; preds = %0
  %7 = icmp ne ptr @pthread_mutex_init, null
  br i1 %7, label %8, label %64

8:                                                ; preds = %6
  %9 = icmp ne ptr @pthread_mutex_lock, null
  br i1 %9, label %10, label %64

10:                                               ; preds = %8
  %11 = icmp ne ptr @pthread_mutex_unlock, null
  br i1 %11, label %12, label %64

12:                                               ; preds = %10
  %13 = icmp ne ptr @pthread_mutex_destroy, null
  br i1 %13, label %14, label %64

14:                                               ; preds = %12
  %15 = icmp ne ptr @pthread_mutexattr_init, null
  br i1 %15, label %16, label %64

16:                                               ; preds = %14
  %17 = icmp ne ptr @pthread_mutexattr_settype, null
  br i1 %17, label %18, label %64

18:                                               ; preds = %16
  %19 = icmp ne ptr @pthread_mutexattr_destroy, null
  br i1 %19, label %20, label %64

20:                                               ; preds = %18
  %21 = icmp ne ptr @pthread_self, null
  br i1 %21, label %22, label %64

22:                                               ; preds = %20
  %23 = load volatile i64, ptr getelementptr inbounds nuw (%struct.___itt_global, ptr @__itt__ittapi_global, i32 0, i32 5), align 8, !tbaa !48
  %24 = icmp ne i64 %23, 0
  br i1 %24, label %62, label %25

25:                                               ; preds = %22
  %26 = call i64 @__itt_interlocked_compare_exchange(ptr noundef getelementptr inbounds nuw (%struct.___itt_global, ptr @__itt__ittapi_global, i32 0, i32 6), i64 noundef 1, i64 noundef 0)
  %27 = icmp eq i64 %26, 0
  br i1 %27, label %28, label %53

28:                                               ; preds = %25
  call void @llvm.lifetime.start.p0(i64 4, ptr %2) #8
  call void @llvm.lifetime.start.p0(i64 4, ptr %3) #8
  %29 = call i32 @pthread_mutexattr_init(ptr noundef %2) #8
  store i32 %29, ptr %3, align 4, !tbaa !24
  %30 = load i32, ptr %3, align 4, !tbaa !24
  %31 = icmp ne i32 %30, 0
  br i1 %31, label %32, label %34

32:                                               ; preds = %28
  %33 = load i32, ptr %3, align 4, !tbaa !24
  call void (i32, ...) @__itt_report_error(i32 noundef 6, ptr noundef @.str, i32 noundef %33)
  br label %34

34:                                               ; preds = %32, %28
  %35 = call i32 @pthread_mutexattr_settype(ptr noundef %2, i32 noundef 1) #8
  store i32 %35, ptr %3, align 4, !tbaa !24
  %36 = load i32, ptr %3, align 4, !tbaa !24
  %37 = icmp ne i32 %36, 0
  br i1 %37, label %38, label %40

38:                                               ; preds = %34
  %39 = load i32, ptr %3, align 4, !tbaa !24
  call void (i32, ...) @__itt_report_error(i32 noundef 6, ptr noundef @.str.1, i32 noundef %39)
  br label %40

40:                                               ; preds = %38, %34
  %41 = call i32 @pthread_mutex_init(ptr noundef getelementptr inbounds nuw (%struct.___itt_global, ptr @__itt__ittapi_global, i32 0, i32 7), ptr noundef %2) #8
  store i32 %41, ptr %3, align 4, !tbaa !24
  %42 = load i32, ptr %3, align 4, !tbaa !24
  %43 = icmp ne i32 %42, 0
  br i1 %43, label %44, label %46

44:                                               ; preds = %40
  %45 = load i32, ptr %3, align 4, !tbaa !24
  call void (i32, ...) @__itt_report_error(i32 noundef 6, ptr noundef @.str.2, i32 noundef %45)
  br label %46

46:                                               ; preds = %44, %40
  %47 = call i32 @pthread_mutexattr_destroy(ptr noundef %2) #8
  store i32 %47, ptr %3, align 4, !tbaa !24
  %48 = load i32, ptr %3, align 4, !tbaa !24
  %49 = icmp ne i32 %48, 0
  br i1 %49, label %50, label %52

50:                                               ; preds = %46
  %51 = load i32, ptr %3, align 4, !tbaa !24
  call void (i32, ...) @__itt_report_error(i32 noundef 6, ptr noundef @.str.3, i32 noundef %51)
  br label %52

52:                                               ; preds = %50, %46
  call void @llvm.lifetime.end.p0(i64 4, ptr %3) #8
  call void @llvm.lifetime.end.p0(i64 4, ptr %2) #8
  store volatile i64 1, ptr getelementptr inbounds nuw (%struct.___itt_global, ptr @__itt__ittapi_global, i32 0, i32 5), align 8, !tbaa !48
  br label %61

53:                                               ; preds = %25
  br label %54

54:                                               ; preds = %58, %53
  %55 = load volatile i64, ptr getelementptr inbounds nuw (%struct.___itt_global, ptr @__itt__ittapi_global, i32 0, i32 5), align 8, !tbaa !48
  %56 = icmp ne i64 %55, 0
  %57 = xor i1 %56, true
  br i1 %57, label %58, label %60

58:                                               ; preds = %54
  %59 = call i32 @sched_yield() #8
  br label %54, !llvm.loop !123

60:                                               ; preds = %54
  br label %61

61:                                               ; preds = %60, %52
  br label %62

62:                                               ; preds = %61, %22
  %63 = call i32 @pthread_mutex_lock(ptr noundef getelementptr inbounds nuw (%struct.___itt_global, ptr @__itt__ittapi_global, i32 0, i32 7)) #8
  br label %64

64:                                               ; preds = %62, %20, %18, %16, %14, %12, %10, %8, %6
  %65 = load volatile i64, ptr getelementptr inbounds nuw (%struct.___itt_global, ptr @__itt__ittapi_global, i32 0, i32 4), align 8, !tbaa !3
  %66 = icmp ne i64 %65, 0
  br i1 %66, label %67, label %103

67:                                               ; preds = %64
  %68 = load volatile i64, ptr @__itt_fini_ittlib.current_thread, align 8, !tbaa !25
  %69 = icmp eq i64 %68, 0
  br i1 %69, label %70, label %102

70:                                               ; preds = %67
  %71 = icmp ne ptr @pthread_mutex_init, null
  br i1 %71, label %72, label %88

72:                                               ; preds = %70
  %73 = icmp ne ptr @pthread_mutex_lock, null
  br i1 %73, label %74, label %88

74:                                               ; preds = %72
  %75 = icmp ne ptr @pthread_mutex_unlock, null
  br i1 %75, label %76, label %88

76:                                               ; preds = %74
  %77 = icmp ne ptr @pthread_mutex_destroy, null
  br i1 %77, label %78, label %88

78:                                               ; preds = %76
  %79 = icmp ne ptr @pthread_mutexattr_init, null
  br i1 %79, label %80, label %88

80:                                               ; preds = %78
  %81 = icmp ne ptr @pthread_mutexattr_settype, null
  br i1 %81, label %82, label %88

82:                                               ; preds = %80
  %83 = icmp ne ptr @pthread_mutexattr_destroy, null
  br i1 %83, label %84, label %88

84:                                               ; preds = %82
  %85 = icmp ne ptr @pthread_self, null
  br i1 %85, label %86, label %88

86:                                               ; preds = %84
  %87 = call i64 @pthread_self() #11
  store volatile i64 %87, ptr @__itt_fini_ittlib.current_thread, align 8, !tbaa !25
  br label %88

88:                                               ; preds = %86, %84, %82, %80, %78, %76, %74, %72, %70
  %89 = load ptr, ptr getelementptr inbounds nuw (%struct.___itt_global, ptr @__itt__ittapi_global, i32 0, i32 8), align 8, !tbaa !124
  %90 = icmp ne ptr %89, null
  br i1 %90, label %91, label %96

91:                                               ; preds = %88
  %92 = load ptr, ptr getelementptr inbounds nuw (%struct.___itt_global, ptr @__itt__ittapi_global, i32 0, i32 8), align 8, !tbaa !124
  %93 = call ptr @dlsym(ptr noundef %92, ptr noundef @.str.4) #8
  %94 = ptrtoint ptr %93 to i64
  %95 = inttoptr i64 %94 to ptr
  store ptr %95, ptr %1, align 8, !tbaa !21
  br label %96

96:                                               ; preds = %91, %88
  %97 = load ptr, ptr %1, align 8, !tbaa !21
  %98 = icmp ne ptr %97, null
  br i1 %98, label %99, label %101

99:                                               ; preds = %96
  %100 = load ptr, ptr %1, align 8, !tbaa !21
  call void %100(ptr noundef @__itt__ittapi_global)
  br label %101

101:                                              ; preds = %99, %96
  call void @__itt_nullify_all_pointers()
  store volatile i64 0, ptr getelementptr inbounds nuw (%struct.___itt_global, ptr @__itt__ittapi_global, i32 0, i32 4), align 8, !tbaa !3
  store volatile i64 0, ptr @__itt_fini_ittlib.current_thread, align 8, !tbaa !25
  br label %102

102:                                              ; preds = %101, %67
  br label %103

103:                                              ; preds = %102, %64
  %104 = icmp ne ptr @pthread_mutex_init, null
  br i1 %104, label %105, label %121

105:                                              ; preds = %103
  %106 = icmp ne ptr @pthread_mutex_lock, null
  br i1 %106, label %107, label %121

107:                                              ; preds = %105
  %108 = icmp ne ptr @pthread_mutex_unlock, null
  br i1 %108, label %109, label %121

109:                                              ; preds = %107
  %110 = icmp ne ptr @pthread_mutex_destroy, null
  br i1 %110, label %111, label %121

111:                                              ; preds = %109
  %112 = icmp ne ptr @pthread_mutexattr_init, null
  br i1 %112, label %113, label %121

113:                                              ; preds = %111
  %114 = icmp ne ptr @pthread_mutexattr_settype, null
  br i1 %114, label %115, label %121

115:                                              ; preds = %113
  %116 = icmp ne ptr @pthread_mutexattr_destroy, null
  br i1 %116, label %117, label %121

117:                                              ; preds = %115
  %118 = icmp ne ptr @pthread_self, null
  br i1 %118, label %119, label %121

119:                                              ; preds = %117
  %120 = call i32 @pthread_mutex_unlock(ptr noundef getelementptr inbounds nuw (%struct.___itt_global, ptr @__itt__ittapi_global, i32 0, i32 7)) #8
  br label %121

121:                                              ; preds = %119, %117, %115, %113, %111, %109, %107, %105, %103
  br label %122

122:                                              ; preds = %121, %0
  call void @llvm.lifetime.end.p0(i64 8, ptr %1) #8
  ret void
}