; Function Attrs: nounwind uwtable
define hidden void @__itt_fini_ittlib() local_unnamed_addr #0 {
  %1 = alloca %union.pthread_mutexattr_t, align 4
  %2 = load volatile i64, ptr getelementptr inbounds nuw (i8, ptr @__itt__ittapi_global, i64 32), align 8, !tbaa !3
  %.not = icmp eq i64 %2, 0
  br i1 %.not, label %61, label %3

3:                                                ; preds = %0
  %4 = icmp ne ptr @pthread_mutex_init, null
  %5 = icmp ne ptr @pthread_mutex_lock, null
  %or.cond = and i1 %4, %5
  %6 = icmp ne ptr @pthread_mutex_unlock, null
  %or.cond1 = and i1 %6, %or.cond
  %7 = icmp ne ptr @pthread_mutex_destroy, null
  %or.cond2 = and i1 %7, %or.cond1
  %8 = icmp ne ptr @pthread_mutexattr_init, null
  %or.cond3 = and i1 %8, %or.cond2
  %9 = icmp ne ptr @pthread_mutexattr_settype, null
  %or.cond4 = and i1 %9, %or.cond3
  %10 = icmp ne ptr @pthread_mutexattr_destroy, null
  %or.cond5 = and i1 %10, %or.cond4
  %11 = icmp ne ptr @pthread_self, null
  %or.cond6 = and i1 %11, %or.cond5
  br i1 %or.cond6, label %12, label %35

12:                                               ; preds = %3
  %13 = load volatile i64, ptr getelementptr inbounds nuw (i8, ptr @__itt__ittapi_global, i64 40), align 8, !tbaa !21
  %.not34 = icmp eq i64 %13, 0
  br i1 %.not34, label %14, label %.loopexit

14:                                               ; preds = %12
  %15 = cmpxchg ptr getelementptr inbounds nuw (i8, ptr @__itt__ittapi_global, i64 48), i64 1, i64 0 seq_cst seq_cst, align 8
  %16 = extractvalue { i64, i1 } %15, 0
  %17 = icmp eq i64 %16, 0
  br i1 %17, label %19, label %.preheader

.preheader:                                       ; preds = %14
  %18 = load volatile i64, ptr getelementptr inbounds nuw (i8, ptr @__itt__ittapi_global, i64 40), align 8, !tbaa !21
  %.not3545 = icmp eq i64 %18, 0
  br i1 %.not3545, label %.lr.ph, label %.loopexit

19:                                               ; preds = %14
  call void @llvm.lifetime.start.p0(i64 4, ptr nonnull %1) #14
  %20 = call i32 @pthread_mutexattr_init(ptr noundef nonnull %1) #14
  %.not36 = icmp eq i32 %20, 0
  br i1 %.not36, label %22, label %21

21:                                               ; preds = %19
  call void (i32, ...) @__itt_report_error(i32 noundef 6, ptr noundef nonnull @.str, i32 noundef %20)
  br label %22

22:                                               ; preds = %21, %19
  %23 = call i32 @pthread_mutexattr_settype(ptr noundef nonnull %1, i32 noundef 1) #14
  %.not37 = icmp eq i32 %23, 0
  br i1 %.not37, label %25, label %24

24:                                               ; preds = %22
  call void (i32, ...) @__itt_report_error(i32 noundef 6, ptr noundef nonnull @.str.1, i32 noundef %23)
  br label %25

25:                                               ; preds = %24, %22
  %26 = call i32 @pthread_mutex_init(ptr noundef nonnull getelementptr inbounds nuw (i8, ptr @__itt__ittapi_global, i64 56), ptr noundef nonnull %1) #14
  %.not38 = icmp eq i32 %26, 0
  br i1 %.not38, label %28, label %27

27:                                               ; preds = %25
  call void (i32, ...) @__itt_report_error(i32 noundef 6, ptr noundef nonnull @.str.2, i32 noundef %26)
  br label %28

28:                                               ; preds = %27, %25
  %29 = call i32 @pthread_mutexattr_destroy(ptr noundef nonnull %1) #14
  %.not39 = icmp eq i32 %29, 0
  br i1 %.not39, label %31, label %30

30:                                               ; preds = %28
  call void (i32, ...) @__itt_report_error(i32 noundef 6, ptr noundef nonnull @.str.3, i32 noundef %29)
  br label %31

31:                                               ; preds = %30, %28
  call void @llvm.lifetime.end.p0(i64 4, ptr nonnull %1) #14
  store volatile i64 1, ptr getelementptr inbounds nuw (i8, ptr @__itt__ittapi_global, i64 40), align 8, !tbaa !21
  br label %.loopexit

.lr.ph:                                           ; preds = %.preheader, %.lr.ph
  %32 = tail call i32 @sched_yield() #14
  %33 = load volatile i64, ptr getelementptr inbounds nuw (i8, ptr @__itt__ittapi_global, i64 40), align 8, !tbaa !21
  %.not35 = icmp eq i64 %33, 0
  br i1 %.not35, label %.lr.ph, label %.loopexit, !llvm.loop !95

.loopexit:                                        ; preds = %.lr.ph, %.preheader, %31, %12
  %34 = call i32 @pthread_mutex_lock(ptr noundef nonnull getelementptr inbounds nuw (i8, ptr @__itt__ittapi_global, i64 56)) #14
  br label %35

35:                                               ; preds = %.loopexit, %3
  %36 = load volatile i64, ptr getelementptr inbounds nuw (i8, ptr @__itt__ittapi_global, i64 32), align 8, !tbaa !3
  %.not40 = icmp eq i64 %36, 0
  br i1 %.not40, label %58, label %37

37:                                               ; preds = %35
  %38 = load volatile i64, ptr @__itt_fini_ittlib.current_thread, align 8, !tbaa !30
  %39 = icmp eq i64 %38, 0
  br i1 %39, label %40, label %58

40:                                               ; preds = %37
  br i1 %or.cond6, label %41, label %43

41:                                               ; preds = %40
  %42 = tail call i64 @pthread_self() #17
  store volatile i64 %42, ptr @__itt_fini_ittlib.current_thread, align 8, !tbaa !30
  br label %43

43:                                               ; preds = %41, %40
  %44 = load ptr, ptr getelementptr inbounds nuw (i8, ptr @__itt__ittapi_global, i64 96), align 8, !tbaa !96
  %.not41 = icmp eq ptr %44, null
  br i1 %.not41, label %.thread, label %45

45:                                               ; preds = %43
  %46 = call ptr @dlsym(ptr noundef nonnull %44, ptr noundef nonnull @.str.4) #14
  %.not42 = icmp eq ptr %46, null
  br i1 %.not42, label %.thread, label %47

47:                                               ; preds = %45
  call void %46(ptr noundef nonnull @__itt__ittapi_global) #14
  br label %.thread

.thread:                                          ; preds = %43, %47, %45
  %48 = load ptr, ptr getelementptr inbounds nuw (i8, ptr @__itt__ittapi_global, i64 120), align 8, !tbaa !97
  %49 = load ptr, ptr %48, align 8, !tbaa !98
  %.not4.i = icmp eq ptr %49, null
  br i1 %.not4.i, label %__itt_nullify_all_pointers.exit, label %.lr.ph.i

.lr.ph.i:                                         ; preds = %.thread, %.lr.ph.i
  %indvars.iv.i = phi i64 [ %indvars.iv.next.i, %.lr.ph.i ], [ 0, %.thread ]
  %50 = phi ptr [ %56, %.lr.ph.i ], [ %48, %.thread ]
  %51 = getelementptr inbounds nuw i8, ptr %50, i64 24
  %52 = load ptr, ptr %51, align 8, !tbaa !100
  %53 = getelementptr inbounds nuw i8, ptr %50, i64 8
  %54 = load ptr, ptr %53, align 8, !tbaa !101
  store ptr %52, ptr %54, align 8, !tbaa !20
  %indvars.iv.next.i = add nuw nsw i64 %indvars.iv.i, 1
  %55 = load ptr, ptr getelementptr inbounds nuw (i8, ptr @__itt__ittapi_global, i64 120), align 8, !tbaa !97
  %56 = getelementptr inbounds nuw %struct.___itt_api_info, ptr %55, i64 %indvars.iv.next.i
  %57 = load ptr, ptr %56, align 8, !tbaa !98
  %.not.i = icmp eq ptr %57, null
  br i1 %.not.i, label %__itt_nullify_all_pointers.exit, label %.lr.ph.i, !llvm.loop !102

__itt_nullify_all_pointers.exit:                  ; preds = %.lr.ph.i, %.thread
  store volatile i64 0, ptr getelementptr inbounds nuw (i8, ptr @__itt__ittapi_global, i64 32), align 8, !tbaa !3
  store volatile i64 0, ptr @__itt_fini_ittlib.current_thread, align 8, !tbaa !30
  br label %58

58:                                               ; preds = %37, %__itt_nullify_all_pointers.exit, %35
  br i1 %or.cond6, label %59, label %61

59:                                               ; preds = %58
  %60 = call i32 @pthread_mutex_unlock(ptr noundef nonnull getelementptr inbounds nuw (i8, ptr @__itt__ittapi_global, i64 56)) #14
  br label %61

61:                                               ; preds = %58, %59, %0
  ret void
}